; Function Attrs: nounwind uwtable
define internal fastcc ptr @typename(ptr noundef %rest, ptr noundef %tok) unnamed_addr #0 {
entry:
  %tok.addr = alloca ptr, align 8
  store ptr %tok, ptr %tok.addr, align 8
  %call = call fastcc ptr @declspec(ptr noundef nonnull %tok.addr, ptr noundef %tok, ptr noundef null)
  %0 = load ptr, ptr %tok.addr, align 8
  %call1 = tail call fastcc ptr @abstract_declarator(ptr noundef %rest, ptr noundef %0, ptr noundef %call)
  ret ptr %call1
}